; ModuleID = 'source-C-CXX/46/5259.c'
source_filename = "source-C-CXX/46/5259.c"
target datalayout = "e-m:e-p270:32:32-p271:32:32-p272:64:64-i64:64-f80:128-n8:16:32:64-S128"
target triple = "x86_64-pc-linux-gnu"

@.str = private unnamed_addr constant [3 x i8] c"%d\00", align 1
@.str.1 = private unnamed_addr constant [4 x i8] c"%d \00", align 1

; Function Attrs: nofree nounwind sspstrong uwtable
define dso_local i32 @main() local_unnamed_addr #0 {
  %1 = alloca i32, align 4
  %2 = alloca [100 x i32], align 16
  %3 = bitcast i32* %1 to i8*
  call void @llvm.lifetime.start.p0i8(i64 4, i8* nonnull %3) #3
  %4 = bitcast [100 x i32]* %2 to i8*
  call void @llvm.lifetime.start.p0i8(i64 400, i8* nonnull %4) #3
  %5 = call i32 (i8*, ...) @__isoc99_scanf(i8* getelementptr inbounds ([3 x i8], [3 x i8]* @.str, i64 0, i64 0), i32* nonnull %1)
  %6 = load i32, i32* %1, align 4, !tbaa !5
  %7 = icmp sgt i32 %6, 0
  br i1 %7, label %8, label %16

8:                                                ; preds = %0, %8
  %9 = phi i64 [ %12, %8 ], [ 0, %0 ]
  %10 = getelementptr inbounds [100 x i32], [100 x i32]* %2, i64 0, i64 %9
  %11 = call i32 (i8*, ...) @__isoc99_scanf(i8* getelementptr inbounds ([3 x i8], [3 x i8]* @.str, i64 0, i64 0), i32* nonnull %10)
  %12 = add nuw nsw i64 %9, 1
  %13 = load i32, i32* %1, align 4, !tbaa !5
  %14 = sext i32 %13 to i64
  %15 = icmp slt i64 %12, %14
  br i1 %15, label %8, label %16, !llvm.loop !9

16:                                               ; preds = %8, %0
  %17 = phi i32 [ %6, %0 ], [ %13, %8 ]
  %18 = shl i32 %17, 31
  %19 = ashr exact i32 %18, 31
  %20 = add nsw i32 %19, %17
  %21 = icmp sgt i32 %20, 1
  br i1 %21, label %22, label %41

22:                                               ; preds = %16
  %23 = lshr i32 %20, 1
  %24 = zext i32 %23 to i64
  %25 = and i64 %24, 1
  %26 = icmp eq i32 %23, 1
  br i1 %26, label %29, label %27

27:                                               ; preds = %22
  %28 = and i64 %24, 2147483646
  br label %46

29:                                               ; preds = %46, %22
  %30 = phi i64 [ 0, %22 ], [ %66, %46 ]
  %31 = icmp eq i64 %25, 0
  br i1 %31, label %41, label %32

32:                                               ; preds = %29
  %33 = getelementptr inbounds [100 x i32], [100 x i32]* %2, i64 0, i64 %30
  %34 = load i32, i32* %33, align 4, !tbaa !5
  %35 = trunc i64 %30 to i32
  %36 = xor i32 %35, -1
  %37 = add i32 %17, %36
  %38 = sext i32 %37 to i64
  %39 = getelementptr inbounds [100 x i32], [100 x i32]* %2, i64 0, i64 %38
  %40 = load i32, i32* %39, align 4, !tbaa !5
  store i32 %40, i32* %33, align 4, !tbaa !5
  store i32 %34, i32* %39, align 4, !tbaa !5
  br label %41

41:                                               ; preds = %32, %29, %16
  %42 = icmp sgt i32 %17, 1
  br i1 %42, label %69, label %43

43:                                               ; preds = %41
  %44 = add nsw i32 %17, -1
  %45 = sext i32 %44 to i64
  br label %79

46:                                               ; preds = %46, %27
  %47 = phi i64 [ 0, %27 ], [ %66, %46 ]
  %48 = phi i64 [ %28, %27 ], [ %67, %46 ]
  %49 = getelementptr inbounds [100 x i32], [100 x i32]* %2, i64 0, i64 %47
  %50 = load i32, i32* %49, align 8, !tbaa !5
  %51 = trunc i64 %47 to i32
  %52 = xor i32 %51, -1
  %53 = add i32 %17, %52
  %54 = sext i32 %53 to i64
  %55 = getelementptr inbounds [100 x i32], [100 x i32]* %2, i64 0, i64 %54
  %56 = load i32, i32* %55, align 4, !tbaa !5
  store i32 %56, i32* %49, align 8, !tbaa !5
  store i32 %50, i32* %55, align 4, !tbaa !5
  %57 = or i64 %47, 1
  %58 = getelementptr inbounds [100 x i32], [100 x i32]* %2, i64 0, i64 %57
  %59 = load i32, i32* %58, align 4, !tbaa !5
  %60 = trunc i64 %57 to i32
  %61 = xor i32 %60, -1
  %62 = add i32 %17, %61
  %63 = sext i32 %62 to i64
  %64 = getelementptr inbounds [100 x i32], [100 x i32]* %2, i64 0, i64 %63
  %65 = load i32, i32* %64, align 4, !tbaa !5
  store i32 %65, i32* %58, align 4, !tbaa !5
  store i32 %59, i32* %64, align 4, !tbaa !5
  %66 = add nuw nsw i64 %47, 2
  %67 = add i64 %48, -2
  %68 = icmp eq i64 %67, 0
  br i1 %68, label %29, label %46, !llvm.loop !11

69:                                               ; preds = %41, %69
  %70 = phi i64 [ %74, %69 ], [ 0, %41 ]
  %71 = getelementptr inbounds [100 x i32], [100 x i32]* %2, i64 0, i64 %70
  %72 = load i32, i32* %71, align 4, !tbaa !5
  %73 = call i32 (i8*, ...) @printf(i8* nonnull dereferenceable(1) getelementptr inbounds ([4 x i8], [4 x i8]* @.str.1, i64 0, i64 0), i32 %72)
  %74 = add nuw nsw i64 %70, 1
  %75 = load i32, i32* %1, align 4, !tbaa !5
  %76 = add nsw i32 %75, -1
  %77 = sext i32 %76 to i64
  %78 = icmp slt i64 %74, %77
  br i1 %78, label %69, label %79, !llvm.loop !12

79:                                               ; preds = %69, %43
  %80 = phi i64 [ %45, %43 ], [ %77, %69 ]
  %81 = getelementptr inbounds [100 x i32], [100 x i32]* %2, i64 0, i64 %80
  %82 = load i32, i32* %81, align 4, !tbaa !5
  %83 = call i32 (i8*, ...) @printf(i8* nonnull dereferenceable(1) getelementptr inbounds ([3 x i8], [3 x i8]* @.str, i64 0, i64 0), i32 %82)
  call void @llvm.lifetime.end.p0i8(i64 400, i8* nonnull %4) #3
  call void @llvm.lifetime.end.p0i8(i64 4, i8* nonnull %3) #3
  ret i32 0
}

; Function Attrs: argmemonly mustprogress nofree nosync nounwind willreturn
declare void @llvm.lifetime.start.p0i8(i64 immarg, i8* nocapture) #1

; Function Attrs: nofree nounwind
declare noundef i32 @__isoc99_scanf(i8* nocapture noundef readonly, ...) local_unnamed_addr #2

; Function Attrs: nofree nounwind
declare noundef i32 @printf(i8* nocapture noundef readonly, ...) local_unnamed_addr #2

; Function Attrs: argmemonly mustprogress nofree nosync nounwind willreturn
declare void @llvm.lifetime.end.p0i8(i64 immarg, i8* nocapture) #1


!llvm.module.flags = !{!0, !1, !2, !3}
!llvm.ident = !{!4}

!0 = !{i32 1, !"wchar_size", i32 4}
!1 = !{i32 7, !"PIC Level", i32 2}
!2 = !{i32 7, !"PIE Level", i32 2}
!3 = !{i32 7, !"uwtable", i32 1}
!4 = !{!"clang version 13.0.0"}
!5 = !{!6, !6, i64 0}
!6 = !{!"int", !7, i64 0}
!7 = !{!"omnipotent char", !8, i64 0}
!8 = !{!"Simple C/C++ TBAA"}
!9 = distinct !{!9, !10}
!10 = !{!"llvm.loop.mustprogress"}
!11 = distinct !{!11, !10}
!12 = distinct !{!12, !10}
